; Function Attrs: nounwind sspstrong uwtable
define dso_local void @bdrv_dirty_bitmap_set_inconsistent(ptr noundef captures(none) %bitmap) local_unnamed_addr #0 {
entry:
  %0 = load ptr, ptr %bitmap, align 8
  %1 = load atomic i64, ptr @qemu_mutex_lock_func monotonic, align 8
  %2 = inttoptr i64 %1 to ptr
  %dirty_bitmap_mutex.i = getelementptr inbounds nuw i8, ptr %0, i64 16904
  tail call void %2(ptr noundef nonnull %dirty_bitmap_mutex.i, ptr noundef nonnull @.str.1, i32 noundef 66) #14
  %persistent = getelementptr inbounds nuw i8, ptr %bitmap, i64 57
  %3 = load i8, ptr %persistent, align 1
  %tobool = trunc i8 %3 to i1
  br i1 %tobool, label %if.end, label %if.else

if.else:                                          ; preds = %entry
  tail call void @__assert_fail(ptr noundef nonnull @.str.24, ptr noundef nonnull @.str.1, i32 noundef 739, ptr noundef nonnull @__PRETTY_FUNCTION__.bdrv_dirty_bitmap_set_inconsistent) #15
  unreachable

if.end:                                           ; preds = %entry
  %inconsistent = getelementptr inbounds nuw i8, ptr %bitmap, i64 58
  store i8 1, ptr %inconsistent, align 2
  %disabled = getelementptr inbounds nuw i8, ptr %bitmap, i64 48
  store i8 1, ptr %disabled, align 8
  %4 = load ptr, ptr %bitmap, align 8
  %dirty_bitmap_mutex.i5 = getelementptr inbounds nuw i8, ptr %4, i64 16904
  tail call void @qemu_mutex_unlock_impl(ptr noundef nonnull %dirty_bitmap_mutex.i5, ptr noundef nonnull @.str.1, i32 noundef 71) #14
  ret void
}